Certificate:
    Data:
        Version: 3 (0x2)
        Serial Number: 0 (0x0)
        Signature Algorithm: sha1WithRSAEncryption
        Issuer: C=FR, ST=Node-Logstash, O=Node-Logstash, CN=ca.node-logstash.testing
        Validity
            Not Before: Nov 15 09:59:45 2013 GMT
            Not After : Nov 13 09:59:45 2023 GMT
        Subject: C=FR, ST=Node-Logstash, O=Node-Logstash, CN=localhost
        Subject Public Key Info:
            Public Key Algorithm: rsaEncryption
            RSA Public Key: (1024 bit)
                Modulus (1024 bit):
                    00:f4:92:9f:a3:53:c7:9c:0c:c6:a2:26:93:53:64:
                    a6:ee:8d:a8:17:3a:de:ce:0e:a5:b6:58:d6:65:b2:
                    27:12:ef:2c:5d:d1:21:0b:00:5c:ff:db:69:d6:ca:
                    41:14:45:49:d5:7f:26:6e:c7:f3:ff:61:d9:bf:ff:
                    f1:6c:79:6f:11:02:17:25:9c:f4:f5:8b:07:43:89:
                    03:3d:75:1e:e4:95:5d:6c:85:72:db:6a:fc:c4:d6:
                    13:22:7d:19:80:d0:1f:63:9a:de:58:9c:e6:b8:78:
                    52:a0:36:6a:76:d0:0f:1d:2c:8e:e9:1f:bb:9d:02:
                    c8:d2:4e:1c:84:d4:bc:9d:21
                Exponent: 65537 (0x10001)
        X509v3 extensions:
            X509v3 Basic Constraints: 
                CA:FALSE
            Netscape Comment: 
                OpenSSL Generated Certificate
            X509v3 Subject Key Identifier: 
                A6:82:98:CD:92:AB:EB:A7:07:76:CF:4D:DB:19:FB:63:A6:9C:94:EA
            X509v3 Authority Key Identifier: 
                keyid:F2:D4:B0:88:61:AA:6D:17:EB:05:D4:86:CE:42:46:B1:6A:C3:0F:17

    Signature Algorithm: sha1WithRSAEncryption
        06:14:98:b1:50:63:7a:b3:ac:d6:f8:55:16:e8:6a:3d:99:1d:
        db:90:83:ef:1b:32:bc:b8:41:8a:69:34:97:93:d3:cf:26:4d:
        ac:a6:5e:1d:b4:5e:33:72:8c:a2:c4:5e:2f:35:80:61:6c:82:
        97:c4:41:37:fe:1b:a5:c9:0a:07:88:40:7a:7e:72:1d:64:97:
        17:91:8c:ca:97:a1:bb:20:0c:f9:8f:92:c0:7b:31:d4:58:95:
        e1:ec:15:0b:d2:91:be:73:2b:23:89:4d:4a:4c:15:20:d4:83:
        5f:df:cf:e8:eb:8f:a1:4b:6a:5a:ef:a8:31:90:ee:61:ba:21:
        5c:f2
-----BEGIN CERTIFICATE-----
MIICojCCAgugAwIBAgIBADANBgkqhkiG9w0BAQUFADBgMQswCQYDVQQGEwJGUjEW
MBQGA1UECBMNTm9kZS1Mb2dzdGFzaDEWMBQGA1UEChMNTm9kZS1Mb2dzdGFzaDEh
MB8GA1UEAxMYY2Eubm9kZS1sb2dzdGFzaC50ZXN0aW5nMB4XDTEzMTExNTA5NTk0
NVoXDTIzMTExMzA5NTk0NVowUTELMAkGA1UEBhMCRlIxFjAUBgNVBAgTDU5vZGUt
TG9nc3Rhc2gxFjAUBgNVBAoTDU5vZGUtTG9nc3Rhc2gxEjAQBgNVBAMTCWxvY2Fs
aG9zdDCBnzANBgkqhkiG9w0BAQEFAAOBjQAwgYkCgYEA9JKfo1PHnAzGoiaTU2Sm
7o2oFzrezg6ltljWZbInEu8sXdEhCwBc/9tp1spBFEVJ1X8mbsfz/2HZv//xbHlv
EQIXJZz09YsHQ4kDPXUe5JVdbIVy22r8xNYTIn0ZgNAfY5reWJzmuHhSoDZqdtAP
HSyO6R+7nQLI0k4chNS8nSECAwEAAaN7MHkwCQYDVR0TBAIwADAsBglghkgBhvhC
AQ0EHxYdT3BlblNTTCBHZW5lcmF0ZWQgQ2VydGlmaWNhdGUwHQYDVR0OBBYEFKaC
mM2Sq+unB3bPTdsZ+2OmnJTqMB8GA1UdIwQYMBaAFPLUsIhhqm0X6wXUhs5CRrFq
ww8XMA0GCSqGSIb3DQEBBQUAA4GBAAYUmLFQY3qzrNb4VRboaj2ZHduQg+8bMry4
QYppNJeT088mTaymXh20XjNyjKLEXi81gGFsgpfEQTf+G6XJCgeIQHp+ch1klxeR
jMqXobsgDPmPksB7MdRYleHsFQvSkb5zKyOJTUpMFSDUg1/fz+jrj6FLalrvqDGQ
7mG6IVzy
-----END CERTIFICATE-----
